target datalayout = "e-m:e-p270:32:32-p271:32:32-p272:64:64-i64:64-i128:128-f80:128-n8:16:32:64-S128"
target triple = "x86_64-pc-linux-gnu"

%struct.prov_sha3_meth_st = type { ptr, ptr, ptr }
%struct.keccak_st = type { [5 x [5 x i64]], [168 x i8], i64, i64, i64, i8, %struct.prov_sha3_meth_st, i32 }

; Function Attrs: nounwind uwtable
define internal i32 @keccak_update(ptr noundef %0, ptr noundef %1, i64 noundef %2) #0 {
  %4 = alloca i32, align 4
  %5 = alloca ptr, align 8
  %6 = alloca ptr, align 8
  %7 = alloca i64, align 8
  %8 = alloca ptr, align 8
  %9 = alloca i64, align 8
  %10 = alloca i64, align 8
  %11 = alloca i64, align 8
  %12 = alloca i32, align 4
  store ptr %0, ptr %5, align 8, !tbaa !3
  store ptr %1, ptr %6, align 8, !tbaa !10
  store i64 %2, ptr %7, align 8, !tbaa !12
  call void @llvm.lifetime.start.p0(i64 8, ptr %8) #5
  %13 = load ptr, ptr %5, align 8, !tbaa !3
  store ptr %13, ptr %8, align 8, !tbaa !7
  call void @llvm.lifetime.start.p0(i64 8, ptr %9) #5
  %14 = load ptr, ptr %8, align 8, !tbaa !7
  %15 = getelementptr inbounds nuw %struct.keccak_st, ptr %14, i32 0, i32 2
  %16 = load i64, ptr %15, align 8, !tbaa !14
  store i64 %16, ptr %9, align 8, !tbaa !12
  call void @llvm.lifetime.start.p0(i64 8, ptr %10) #5
  call void @llvm.lifetime.start.p0(i64 8, ptr %11) #5
  %17 = load i64, ptr %7, align 8, !tbaa !12
  %18 = icmp eq i64 %17, 0
  br i1 %18, label %19, label %20

19:                                               ; preds = %3
  store i32 1, ptr %4, align 4
  store i32 1, ptr %12, align 4
  br label %97

20:                                               ; preds = %3
  %21 = load ptr, ptr %8, align 8, !tbaa !7
  %22 = getelementptr inbounds nuw %struct.keccak_st, ptr %21, i32 0, i32 4
  %23 = load i64, ptr %22, align 8, !tbaa !18
  store i64 %23, ptr %10, align 8, !tbaa !12
  %24 = icmp ne i64 %23, 0
  br i1 %24, label %25, label %71

25:                                               ; preds = %20
  %26 = load i64, ptr %9, align 8, !tbaa !12
  %27 = load i64, ptr %10, align 8, !tbaa !12
  %28 = sub i64 %26, %27
  store i64 %28, ptr %11, align 8, !tbaa !12
  %29 = load i64, ptr %7, align 8, !tbaa !12
  %30 = load i64, ptr %11, align 8, !tbaa !12
  %31 = icmp ult i64 %29, %30
  br i1 %31, label %32, label %45

32:                                               ; preds = %25
  %33 = load ptr, ptr %8, align 8, !tbaa !7
  %34 = getelementptr inbounds nuw %struct.keccak_st, ptr %33, i32 0, i32 1
  %35 = getelementptr inbounds [168 x i8], ptr %34, i64 0, i64 0
  %36 = load i64, ptr %10, align 8, !tbaa !12
  %37 = getelementptr inbounds nuw i8, ptr %35, i64 %36
  %38 = load ptr, ptr %6, align 8, !tbaa !10
  %39 = load i64, ptr %7, align 8, !tbaa !12
  call void @llvm.memcpy.p0.p0.i64(ptr align 1 %37, ptr align 1 %38, i64 %39, i1 false)
  %40 = load i64, ptr %7, align 8, !tbaa !12
  %41 = load ptr, ptr %8, align 8, !tbaa !7
  %42 = getelementptr inbounds nuw %struct.keccak_st, ptr %41, i32 0, i32 4
  %43 = load i64, ptr %42, align 8, !tbaa !18
  %44 = add i64 %43, %40
  store i64 %44, ptr %42, align 8, !tbaa !18
  store i32 1, ptr %4, align 4
  store i32 1, ptr %12, align 4
  br label %97

45:                                               ; preds = %25
  %46 = load ptr, ptr %8, align 8, !tbaa !7
  %47 = getelementptr inbounds nuw %struct.keccak_st, ptr %46, i32 0, i32 1
  %48 = getelementptr inbounds [168 x i8], ptr %47, i64 0, i64 0
  %49 = load i64, ptr %10, align 8, !tbaa !12
  %50 = getelementptr inbounds nuw i8, ptr %48, i64 %49
  %51 = load ptr, ptr %6, align 8, !tbaa !10
  %52 = load i64, ptr %11, align 8, !tbaa !12
  call void @llvm.memcpy.p0.p0.i64(ptr align 1 %50, ptr align 1 %51, i64 %52, i1 false)
  %53 = load i64, ptr %11, align 8, !tbaa !12
  %54 = load ptr, ptr %6, align 8, !tbaa !10
  %55 = getelementptr inbounds nuw i8, ptr %54, i64 %53
  store ptr %55, ptr %6, align 8, !tbaa !10
  %56 = load i64, ptr %11, align 8, !tbaa !12
  %57 = load i64, ptr %7, align 8, !tbaa !12
  %58 = sub i64 %57, %56
  store i64 %58, ptr %7, align 8, !tbaa !12
  %59 = load ptr, ptr %8, align 8, !tbaa !7
  %60 = getelementptr inbounds nuw %struct.keccak_st, ptr %59, i32 0, i32 6
  %61 = getelementptr inbounds nuw %struct.prov_sha3_meth_st, ptr %60, i32 0, i32 0
  %62 = load ptr, ptr %61, align 8, !tbaa !19
  %63 = load ptr, ptr %8, align 8, !tbaa !7
  %64 = load ptr, ptr %8, align 8, !tbaa !7
  %65 = getelementptr inbounds nuw %struct.keccak_st, ptr %64, i32 0, i32 1
  %66 = getelementptr inbounds [168 x i8], ptr %65, i64 0, i64 0
  %67 = load i64, ptr %9, align 8, !tbaa !12
  %68 = call i64 %62(ptr noundef %63, ptr noundef %66, i64 noundef %67)
  %69 = load ptr, ptr %8, align 8, !tbaa !7
  %70 = getelementptr inbounds nuw %struct.keccak_st, ptr %69, i32 0, i32 4
  store i64 0, ptr %70, align 8, !tbaa !18
  br label %71

71:                                               ; preds = %45, %20
  %72 = load ptr, ptr %8, align 8, !tbaa !7
  %73 = getelementptr inbounds nuw %struct.keccak_st, ptr %72, i32 0, i32 6
  %74 = getelementptr inbounds nuw %struct.prov_sha3_meth_st, ptr %73, i32 0, i32 0
  %75 = load ptr, ptr %74, align 8, !tbaa !19
  %76 = load ptr, ptr %8, align 8, !tbaa !7
  %77 = load ptr, ptr %6, align 8, !tbaa !10
  %78 = load i64, ptr %7, align 8, !tbaa !12
  %79 = call i64 %75(ptr noundef %76, ptr noundef %77, i64 noundef %78)
  store i64 %79, ptr %11, align 8, !tbaa !12
  %80 = load i64, ptr %11, align 8, !tbaa !12
  %81 = icmp ne i64 %80, 0
  br i1 %81, label %82, label %96

82:                                               ; preds = %71
  %83 = load ptr, ptr %8, align 8, !tbaa !7
  %84 = getelementptr inbounds nuw %struct.keccak_st, ptr %83, i32 0, i32 1
  %85 = getelementptr inbounds [168 x i8], ptr %84, i64 0, i64 0
  %86 = load ptr, ptr %6, align 8, !tbaa !10
  %87 = load i64, ptr %7, align 8, !tbaa !12
  %88 = getelementptr inbounds nuw i8, ptr %86, i64 %87
  %89 = load i64, ptr %11, align 8, !tbaa !12
  %90 = sub i64 0, %89
  %91 = getelementptr inbounds i8, ptr %88, i64 %90
  %92 = load i64, ptr %11, align 8, !tbaa !12
  call void @llvm.memcpy.p0.p0.i64(ptr align 8 %85, ptr align 1 %91, i64 %92, i1 false)
  %93 = load i64, ptr %11, align 8, !tbaa !12
  %94 = load ptr, ptr %8, align 8, !tbaa !7
  %95 = getelementptr inbounds nuw %struct.keccak_st, ptr %94, i32 0, i32 4
  store i64 %93, ptr %95, align 8, !tbaa !18
  br label %96

96:                                               ; preds = %82, %71
  store i32 1, ptr %4, align 4
  store i32 1, ptr %12, align 4
  br label %97

97:                                               ; preds = %96, %32, %19
  call void @llvm.lifetime.end.p0(i64 8, ptr %11) #5
  call void @llvm.lifetime.end.p0(i64 8, ptr %10) #5
  call void @llvm.lifetime.end.p0(i64 8, ptr %9) #5
  call void @llvm.lifetime.end.p0(i64 8, ptr %8) #5
  %98 = load i32, ptr %4, align 4
  ret i32 %98
}