; Function Attrs: nounwind uwtable
define internal noundef i32 @keccak_update(ptr noundef %0, ptr noundef %1, i64 noundef %2) #0 {
  %4 = getelementptr inbounds nuw i8, ptr %0, i64 368
  %5 = load i64, ptr %4, align 8, !tbaa !8
  %6 = icmp eq i64 %2, 0
  br i1 %6, label %33, label %7

7:                                                ; preds = %3
  %8 = getelementptr inbounds nuw i8, ptr %0, i64 384
  %9 = load i64, ptr %8, align 8, !tbaa !13
  %.not = icmp eq i64 %9, 0
  br i1 %.not, label %24, label %10

10:                                               ; preds = %7
  %11 = sub i64 %5, %9
  %12 = icmp ult i64 %2, %11
  %13 = getelementptr inbounds nuw i8, ptr %0, i64 200
  %14 = getelementptr inbounds nuw i8, ptr %13, i64 %9
  br i1 %12, label %15, label %18

15:                                               ; preds = %10
  tail call void @llvm.memcpy.p0.p0.i64(ptr nonnull align 1 %14, ptr align 1 %1, i64 %2, i1 false)
  %16 = load i64, ptr %8, align 8, !tbaa !13
  %17 = add i64 %16, %2
  br label %.sink.split

18:                                               ; preds = %10
  tail call void @llvm.memcpy.p0.p0.i64(ptr nonnull align 1 %14, ptr align 1 %1, i64 %11, i1 false)
  %19 = getelementptr inbounds nuw i8, ptr %1, i64 %11
  %20 = sub nuw i64 %2, %11
  %21 = getelementptr inbounds nuw i8, ptr %0, i64 400
  %22 = load ptr, ptr %21, align 8, !tbaa !14
  %23 = tail call i64 %22(ptr noundef nonnull %0, ptr noundef nonnull %13, i64 noundef %5) #5
  store i64 0, ptr %8, align 8, !tbaa !13
  br label %24

24:                                               ; preds = %18, %7
  %.040 = phi i64 [ %20, %18 ], [ %2, %7 ]
  %.039 = phi ptr [ %19, %18 ], [ %1, %7 ]
  %25 = getelementptr inbounds nuw i8, ptr %0, i64 400
  %26 = load ptr, ptr %25, align 8, !tbaa !14
  %27 = tail call i64 %26(ptr noundef nonnull %0, ptr noundef %.039, i64 noundef %.040) #5
  %.not44 = icmp eq i64 %27, 0
  br i1 %.not44, label %33, label %28

28:                                               ; preds = %24
  %29 = getelementptr inbounds nuw i8, ptr %0, i64 200
  %30 = getelementptr inbounds nuw i8, ptr %.039, i64 %.040
  %31 = sub i64 0, %27
  %32 = getelementptr inbounds i8, ptr %30, i64 %31
  tail call void @llvm.memcpy.p0.p0.i64(ptr nonnull align 8 %29, ptr nonnull align 1 %32, i64 %27, i1 false)
  br label %.sink.split

.sink.split:                                      ; preds = %15, %28
  %.sink = phi i64 [ %27, %28 ], [ %17, %15 ]
  store i64 %.sink, ptr %8, align 8, !tbaa !13
  br label %33

33:                                               ; preds = %.sink.split, %24, %3
  ret i32 1
}